target datalayout = "e-m:e-p270:32:32-p271:32:32-p272:64:64-i64:64-i128:128-f80:128-n8:16:32:64-S128"
target triple = "x86_64-unknown-linux-gnu"

%struct.dsa_st = type { i64, ptr, ptr, ptr, ptr, ptr, ptr, ptr, i32, %union.crypto_mutex_st, ptr, i32, %struct.crypto_ex_data_st }
%union.crypto_mutex_st = type { double, [48 x i8] }
%struct.crypto_ex_data_st = type { ptr }
%struct.dh_st = type { ptr, ptr, ptr, ptr, i32, %union.crypto_mutex_st, ptr, ptr, ptr, ptr, i32, ptr, i32, i32, %struct.crypto_ex_data_st }

; Function Attrs: nounwind uwtable
define hidden ptr @DSA_dup_DH(ptr noundef %r) #0 {
entry:
  %retval = alloca ptr, align 8
  %r.addr = alloca ptr, align 8
  %ret = alloca ptr, align 8
  store ptr %r, ptr %r.addr, align 8
  store ptr null, ptr %ret, align 8
  %0 = load ptr, ptr %r.addr, align 8
  %cmp = icmp eq ptr %0, null
  br i1 %cmp, label %if.then, label %if.end

if.then:                                          ; preds = %entry
  br label %err

if.end:                                           ; preds = %entry
  %call = call ptr @DH_new()
  store ptr %call, ptr %ret, align 8
  %1 = load ptr, ptr %ret, align 8
  %cmp1 = icmp eq ptr %1, null
  br i1 %cmp1, label %if.then2, label %if.end3

if.then2:                                         ; preds = %if.end
  br label %err

if.end3:                                          ; preds = %if.end
  %2 = load ptr, ptr %r.addr, align 8
  %q = getelementptr inbounds %struct.dsa_st, ptr %2, i32 0, i32 2
  %3 = load ptr, ptr %q, align 8
  %cmp4 = icmp ne ptr %3, null
  br i1 %cmp4, label %if.then5, label %if.end14

if.then5:                                         ; preds = %if.end3
  %4 = load ptr, ptr %r.addr, align 8
  %q6 = getelementptr inbounds %struct.dsa_st, ptr %4, i32 0, i32 2
  %5 = load ptr, ptr %q6, align 8
  %call7 = call i32 @BN_num_bits(ptr noundef %5)
  %6 = load ptr, ptr %ret, align 8
  %priv_length = getelementptr inbounds %struct.dh_st, ptr %6, i32 0, i32 4
  store i32 %call7, ptr %priv_length, align 8
  %7 = load ptr, ptr %r.addr, align 8
  %q8 = getelementptr inbounds %struct.dsa_st, ptr %7, i32 0, i32 2
  %8 = load ptr, ptr %q8, align 8
  %call9 = call ptr @BN_dup(ptr noundef %8)
  %9 = load ptr, ptr %ret, align 8
  %q10 = getelementptr inbounds %struct.dh_st, ptr %9, i32 0, i32 7
  store ptr %call9, ptr %q10, align 8
  %cmp11 = icmp eq ptr %call9, null
  br i1 %cmp11, label %if.then12, label %if.end13

if.then12:                                        ; preds = %if.then5
  br label %err

if.end13:                                         ; preds = %if.then5
  br label %if.end14

if.end14:                                         ; preds = %if.end13, %if.end3
  %10 = load ptr, ptr %r.addr, align 8
  %p = getelementptr inbounds %struct.dsa_st, ptr %10, i32 0, i32 1
  %11 = load ptr, ptr %p, align 8
  %cmp15 = icmp ne ptr %11, null
  br i1 %cmp15, label %land.lhs.true, label %lor.lhs.false

land.lhs.true:                                    ; preds = %if.end14
  %12 = load ptr, ptr %r.addr, align 8
  %p16 = getelementptr inbounds %struct.dsa_st, ptr %12, i32 0, i32 1
  %13 = load ptr, ptr %p16, align 8
  %call17 = call ptr @BN_dup(ptr noundef %13)
  %14 = load ptr, ptr %ret, align 8
  %p18 = getelementptr inbounds %struct.dh_st, ptr %14, i32 0, i32 0
  store ptr %call17, ptr %p18, align 8
  %cmp19 = icmp eq ptr %call17, null
  br i1 %cmp19, label %if.then40, label %lor.lhs.false

lor.lhs.false:                                    ; preds = %land.lhs.true, %if.end14
  %15 = load ptr, ptr %r.addr, align 8
  %g = getelementptr inbounds %struct.dsa_st, ptr %15, i32 0, i32 3
  %16 = load ptr, ptr %g, align 8
  %cmp20 = icmp ne ptr %16, null
  br i1 %cmp20, label %land.lhs.true21, label %lor.lhs.false26

land.lhs.true21:                                  ; preds = %lor.lhs.false
  %17 = load ptr, ptr %r.addr, align 8
  %g22 = getelementptr inbounds %struct.dsa_st, ptr %17, i32 0, i32 3
  %18 = load ptr, ptr %g22, align 8
  %call23 = call ptr @BN_dup(ptr noundef %18)
  %19 = load ptr, ptr %ret, align 8
  %g24 = getelementptr inbounds %struct.dh_st, ptr %19, i32 0, i32 1
  store ptr %call23, ptr %g24, align 8
  %cmp25 = icmp eq ptr %call23, null
  br i1 %cmp25, label %if.then40, label %lor.lhs.false26

lor.lhs.false26:                                  ; preds = %land.lhs.true21, %lor.lhs.false
  %20 = load ptr, ptr %r.addr, align 8
  %pub_key = getelementptr inbounds %struct.dsa_st, ptr %20, i32 0, i32 4
  %21 = load ptr, ptr %pub_key, align 8
  %cmp27 = icmp ne ptr %21, null
  br i1 %cmp27, label %land.lhs.true28, label %lor.lhs.false33

land.lhs.true28:                                  ; preds = %lor.lhs.false26
  %22 = load ptr, ptr %r.addr, align 8
  %pub_key29 = getelementptr inbounds %struct.dsa_st, ptr %22, i32 0, i32 4
  %23 = load ptr, ptr %pub_key29, align 8
  %call30 = call ptr @BN_dup(ptr noundef %23)
  %24 = load ptr, ptr %ret, align 8
  %pub_key31 = getelementptr inbounds %struct.dh_st, ptr %24, i32 0, i32 2
  store ptr %call30, ptr %pub_key31, align 8
  %cmp32 = icmp eq ptr %call30, null
  br i1 %cmp32, label %if.then40, label %lor.lhs.false33

lor.lhs.false33:                                  ; preds = %land.lhs.true28, %lor.lhs.false26
  %25 = load ptr, ptr %r.addr, align 8
  %priv_key = getelementptr inbounds %struct.dsa_st, ptr %25, i32 0, i32 5
  %26 = load ptr, ptr %priv_key, align 8
  %cmp34 = icmp ne ptr %26, null
  br i1 %cmp34, label %land.lhs.true35, label %if.end41

land.lhs.true35:                                  ; preds = %lor.lhs.false33
  %27 = load ptr, ptr %r.addr, align 8
  %priv_key36 = getelementptr inbounds %struct.dsa_st, ptr %27, i32 0, i32 5
  %28 = load ptr, ptr %priv_key36, align 8
  %call37 = call ptr @BN_dup(ptr noundef %28)
  %29 = load ptr, ptr %ret, align 8
  %priv_key38 = getelementptr inbounds %struct.dh_st, ptr %29, i32 0, i32 3
  store ptr %call37, ptr %priv_key38, align 8
  %cmp39 = icmp eq ptr %call37, null
  br i1 %cmp39, label %if.then40, label %if.end41

if.then40:                                        ; preds = %land.lhs.true35, %land.lhs.true28, %land.lhs.true21, %land.lhs.true
  br label %err

if.end41:                                         ; preds = %land.lhs.true35, %lor.lhs.false33
  %30 = load ptr, ptr %ret, align 8
  store ptr %30, ptr %retval, align 8
  br label %return

err:                                              ; preds = %if.then40, %if.then12, %if.then2, %if.then
  %31 = load ptr, ptr %ret, align 8
  call void @DH_free(ptr noundef %31)
  store ptr null, ptr %retval, align 8
  br label %return

return:                                           ; preds = %err, %if.end41
  %32 = load ptr, ptr %retval, align 8
  ret ptr %32
}