; Function Attrs: nounwind uwtable
define hidden ptr @DSA_dup_DH(ptr noundef readonly %r) local_unnamed_addr #0 {
entry:
  %cmp = icmp eq ptr %r, null
  br i1 %cmp, label %err, label %if.end

if.end:                                           ; preds = %entry
  %call = tail call ptr @DH_new() #8
  %cmp1 = icmp eq ptr %call, null
  br i1 %cmp1, label %err, label %if.end3

if.end3:                                          ; preds = %if.end
  %q = getelementptr inbounds nuw i8, ptr %r, i64 16
  %0 = load ptr, ptr %q, align 8
  %cmp4.not = icmp eq ptr %0, null
  br i1 %cmp4.not, label %if.end14, label %if.then5

if.then5:                                         ; preds = %if.end3
  %call7 = tail call i32 @BN_num_bits(ptr noundef nonnull %0) #8
  %priv_length = getelementptr inbounds nuw i8, ptr %call, i64 32
  store i32 %call7, ptr %priv_length, align 8
  %1 = load ptr, ptr %q, align 8
  %call9 = tail call ptr @BN_dup(ptr noundef %1) #8
  %q10 = getelementptr inbounds nuw i8, ptr %call, i64 104
  store ptr %call9, ptr %q10, align 8
  %cmp11 = icmp eq ptr %call9, null
  br i1 %cmp11, label %err, label %if.end14

if.end14:                                         ; preds = %if.then5, %if.end3
  %p = getelementptr inbounds nuw i8, ptr %r, i64 8
  %2 = load ptr, ptr %p, align 8
  %cmp15.not = icmp eq ptr %2, null
  br i1 %cmp15.not, label %lor.lhs.false, label %land.lhs.true

land.lhs.true:                                    ; preds = %if.end14
  %call17 = tail call ptr @BN_dup(ptr noundef nonnull %2) #8
  store ptr %call17, ptr %call, align 8
  %cmp19 = icmp eq ptr %call17, null
  br i1 %cmp19, label %err, label %lor.lhs.false

lor.lhs.false:                                    ; preds = %land.lhs.true, %if.end14
  %g = getelementptr inbounds nuw i8, ptr %r, i64 24
  %3 = load ptr, ptr %g, align 8
  %cmp20.not = icmp eq ptr %3, null
  br i1 %cmp20.not, label %lor.lhs.false26, label %land.lhs.true21

land.lhs.true21:                                  ; preds = %lor.lhs.false
  %call23 = tail call ptr @BN_dup(ptr noundef nonnull %3) #8
  %g24 = getelementptr inbounds nuw i8, ptr %call, i64 8
  store ptr %call23, ptr %g24, align 8
  %cmp25 = icmp eq ptr %call23, null
  br i1 %cmp25, label %err, label %lor.lhs.false26

lor.lhs.false26:                                  ; preds = %land.lhs.true21, %lor.lhs.false
  %pub_key = getelementptr inbounds nuw i8, ptr %r, i64 32
  %4 = load ptr, ptr %pub_key, align 8
  %cmp27.not = icmp eq ptr %4, null
  br i1 %cmp27.not, label %lor.lhs.false33, label %land.lhs.true28

land.lhs.true28:                                  ; preds = %lor.lhs.false26
  %call30 = tail call ptr @BN_dup(ptr noundef nonnull %4) #8
  %pub_key31 = getelementptr inbounds nuw i8, ptr %call, i64 16
  store ptr %call30, ptr %pub_key31, align 8
  %cmp32 = icmp eq ptr %call30, null
  br i1 %cmp32, label %err, label %lor.lhs.false33

lor.lhs.false33:                                  ; preds = %land.lhs.true28, %lor.lhs.false26
  %priv_key = getelementptr inbounds nuw i8, ptr %r, i64 40
  %5 = load ptr, ptr %priv_key, align 8
  %cmp34.not = icmp eq ptr %5, null
  br i1 %cmp34.not, label %return, label %land.lhs.true35

land.lhs.true35:                                  ; preds = %lor.lhs.false33
  %call37 = tail call ptr @BN_dup(ptr noundef nonnull %5) #8
  %priv_key38 = getelementptr inbounds nuw i8, ptr %call, i64 24
  store ptr %call37, ptr %priv_key38, align 8
  %cmp39 = icmp eq ptr %call37, null
  br i1 %cmp39, label %err, label %return

err:                                              ; preds = %land.lhs.true, %land.lhs.true21, %land.lhs.true28, %land.lhs.true35, %if.then5, %if.end, %entry
  %ret.0 = phi ptr [ null, %entry ], [ null, %if.end ], [ %call, %if.then5 ], [ %call, %land.lhs.true ], [ %call, %land.lhs.true21 ], [ %call, %land.lhs.true28 ], [ %call, %land.lhs.true35 ]
  tail call void @DH_free(ptr noundef %ret.0) #8
  br label %return

return:                                           ; preds = %lor.lhs.false33, %land.lhs.true35, %err
  %retval.0 = phi ptr [ null, %err ], [ %call, %land.lhs.true35 ], [ %call, %lor.lhs.false33 ]
  ret ptr %retval.0
}